; Function Attrs: mustprogress uwtable
define hidden void @_ZN7nanogui5Popup26refresh_relative_placementEv(ptr nocapture noundef nonnull align 8 dereferenceable(220) %0) unnamed_addr #0 align 2 {
  %2 = getelementptr inbounds i8, ptr %0, i64 192
  %3 = load ptr, ptr %2, align 8
  %.not = icmp eq ptr %3, null
  br i1 %.not, label %37, label %4

4:                                                ; preds = %1
  %5 = load ptr, ptr %3, align 8
  %6 = getelementptr inbounds i8, ptr %5, i64 120
  %7 = load ptr, ptr %6, align 8
  tail call void %7(ptr noundef nonnull align 8 dereferenceable(186) %3)
  %8 = load ptr, ptr %2, align 8
  br label %9

9:                                                ; preds = %9, %4
  %.07.i = phi ptr [ %8, %4 ], [ %16, %9 ]
  %.056.i = phi i1 [ true, %4 ], [ %14, %9 ]
  %10 = getelementptr inbounds i8, ptr %.07.i, i64 88
  %11 = load i8, ptr %10, align 8
  %12 = and i8 %11, 1
  %13 = icmp ne i8 %12, 0
  %14 = and i1 %.056.i, %13
  %15 = getelementptr inbounds i8, ptr %.07.i, i64 16
  %16 = load ptr, ptr %15, align 8
  %.not.i = icmp eq ptr %16, null
  br i1 %.not.i, label %_ZNK7nanogui6Widget17visible_recursiveEv.exit, label %9, !llvm.loop !5

_ZNK7nanogui6Widget17visible_recursiveEv.exit:    ; preds = %9
  %17 = getelementptr inbounds i8, ptr %0, i64 88
  %18 = load i8, ptr %17, align 8
  %19 = and i8 %18, 1
  %20 = icmp ne i8 %19, 0
  %21 = select i1 %14, i1 %20, i1 false
  %22 = zext i1 %21 to i8
  store i8 %22, ptr %17, align 8
  %23 = getelementptr inbounds i8, ptr %8, i64 40
  %24 = getelementptr inbounds i8, ptr %0, i64 200
  %25 = load i32, ptr %23, align 4
  %26 = load i32, ptr %24, align 8
  %27 = add nsw i32 %26, %25
  %28 = getelementptr inbounds i8, ptr %8, i64 44
  %29 = load i32, ptr %28, align 4
  %30 = getelementptr inbounds i8, ptr %0, i64 204
  %31 = load i32, ptr %30, align 4
  %32 = add nsw i32 %31, %29
  %33 = getelementptr inbounds i8, ptr %0, i64 208
  %34 = load i32, ptr %33, align 8
  %35 = sub i32 %32, %34
  %36 = getelementptr inbounds i8, ptr %0, i64 40
  store i32 %27, ptr %36, align 8
  %.sroa_idx11 = getelementptr inbounds i8, ptr %0, i64 44
  store i32 %35, ptr %.sroa_idx11, align 4
  br label %37

37:                                               ; preds = %1, %_ZNK7nanogui6Widget17visible_recursiveEv.exit
  ret void
}